target datalayout = "e-m:e-p270:32:32-p271:32:32-p272:64:64-i64:64-i128:128-f80:128-n8:16:32:64-S128"
target triple = "x86_64-pc-linux-gnu"

%struct.lv_ll_t = type { i32, ptr, ptr }
%struct._lv_obj_t = type { ptr, ptr, ptr, ptr, ptr, %struct.lv_area_t, i32, i16, i16 }
%struct.lv_area_t = type { i32, i32, i32, i32 }
%struct._lv_display_t = type { i32, i32, i32, i32, i32, i32, i32, ptr, ptr, ptr, ptr, ptr, i32, i32, i8, i32, i16, i32, [32 x %struct.lv_area_t], [32 x i8], i32, i32, %struct.lv_ll_t, %struct._lv_draw_buf_t, %struct._lv_draw_buf_t, ptr, ptr, ptr, ptr, ptr, ptr, ptr, ptr, ptr, ptr, i32, i8, ptr, ptr, %struct.lv_event_list_t, i8, ptr, ptr, i32, %struct.lv_area_t }
%struct._lv_draw_buf_t = type { %struct.lv_image_header_t, i32, ptr, ptr, ptr }
%struct.lv_image_header_t = type <{ i64, i32 }>
%struct.lv_event_list_t = type { %struct._lv_array_t, i8 }
%struct._lv_array_t = type { ptr, i32, i32, i32, i8 }
%struct._lv_obj_spec_attr_t = type { ptr, ptr, %struct.lv_event_list_t, %struct.lv_point_t, i32, i32, i16, i16 }
%struct.lv_point_t = type { i32, i32 }

; Function Attrs: nounwind uwtable
define ptr @lv_obj_get_child(ptr noundef %0, i32 noundef %1) #0 {
  %3 = alloca ptr, align 8
  %4 = alloca ptr, align 8
  %5 = alloca i32, align 4
  %6 = alloca i32, align 4
  %7 = alloca i32, align 4
  store ptr %0, ptr %4, align 8, !tbaa !3
  store i32 %1, ptr %5, align 4, !tbaa !37
  br label %8

8:                                                ; preds = %2
  %9 = load ptr, ptr %4, align 8, !tbaa !3
  %10 = icmp ne ptr %9, null
  br i1 %10, label %15, label %11

11:                                               ; preds = %8
  br label %12

12:                                               ; preds = %11
  br label %13

13:                                               ; preds = %12
  br label %14

14:                                               ; preds = %13, %14
  br label %14

15:                                               ; preds = %8
  br label %16

16:                                               ; preds = %15
  %17 = load ptr, ptr %4, align 8, !tbaa !3
  %18 = getelementptr inbounds nuw %struct._lv_obj_t, ptr %17, i32 0, i32 2
  %19 = load ptr, ptr %18, align 8, !tbaa !43
  %20 = icmp eq ptr %19, null
  br i1 %20, label %21, label %22

21:                                               ; preds = %16
  store ptr null, ptr %3, align 8
  br label %62

22:                                               ; preds = %16
  call void @llvm.lifetime.start.p0(i64 4, ptr %6) #3
  %23 = load i32, ptr %5, align 4, !tbaa !37
  %24 = icmp slt i32 %23, 0
  br i1 %24, label %25, label %39

25:                                               ; preds = %22
  %26 = load ptr, ptr %4, align 8, !tbaa !3
  %27 = getelementptr inbounds nuw %struct._lv_obj_t, ptr %26, i32 0, i32 2
  %28 = load ptr, ptr %27, align 8, !tbaa !43
  %29 = getelementptr inbounds nuw %struct._lv_obj_spec_attr_t, ptr %28, i32 0, i32 6
  %30 = load i16, ptr %29, align 8, !tbaa !64
  %31 = zext i16 %30 to i32
  %32 = load i32, ptr %5, align 4, !tbaa !37
  %33 = add nsw i32 %31, %32
  store i32 %33, ptr %5, align 4, !tbaa !37
  %34 = load i32, ptr %5, align 4, !tbaa !37
  %35 = icmp slt i32 %34, 0
  br i1 %35, label %36, label %37

36:                                               ; preds = %25
  store ptr null, ptr %3, align 8
  store i32 1, ptr %7, align 4
  br label %61

37:                                               ; preds = %25
  %38 = load i32, ptr %5, align 4, !tbaa !37
  store i32 %38, ptr %6, align 4, !tbaa !37
  br label %41

39:                                               ; preds = %22
  %40 = load i32, ptr %5, align 4, !tbaa !37
  store i32 %40, ptr %6, align 4, !tbaa !37
  br label %41

41:                                               ; preds = %39, %37
  %42 = load i32, ptr %6, align 4, !tbaa !37
  %43 = load ptr, ptr %4, align 8, !tbaa !3
  %44 = getelementptr inbounds nuw %struct._lv_obj_t, ptr %43, i32 0, i32 2
  %45 = load ptr, ptr %44, align 8, !tbaa !43
  %46 = getelementptr inbounds nuw %struct._lv_obj_spec_attr_t, ptr %45, i32 0, i32 6
  %47 = load i16, ptr %46, align 8, !tbaa !64
  %48 = zext i16 %47 to i32
  %49 = icmp uge i32 %42, %48
  br i1 %49, label %50, label %51

50:                                               ; preds = %41
  store ptr null, ptr %3, align 8
  store i32 1, ptr %7, align 4
  br label %61

51:                                               ; preds = %41
  %52 = load ptr, ptr %4, align 8, !tbaa !3
  %53 = getelementptr inbounds nuw %struct._lv_obj_t, ptr %52, i32 0, i32 2
  %54 = load ptr, ptr %53, align 8, !tbaa !43
  %55 = getelementptr inbounds nuw %struct._lv_obj_spec_attr_t, ptr %54, i32 0, i32 0
  %56 = load ptr, ptr %55, align 8, !tbaa !66
  %57 = load i32, ptr %5, align 4, !tbaa !37
  %58 = sext i32 %57 to i64
  %59 = getelementptr inbounds ptr, ptr %56, i64 %58
  %60 = load ptr, ptr %59, align 8, !tbaa !3
  store ptr %60, ptr %3, align 8
  store i32 1, ptr %7, align 4
  br label %61

61:                                               ; preds = %51, %50, %36
  call void @llvm.lifetime.end.p0(i64 4, ptr %6) #3
  br label %62

62:                                               ; preds = %61, %21
  %63 = load ptr, ptr %3, align 8
  ret ptr %63
}

; Function Attrs: nounwind uwtable
define i32 @lv_obj_get_child_count(ptr noundef %0) #0 {
  %2 = alloca i32, align 4
  %3 = alloca ptr, align 8
  store ptr %0, ptr %3, align 8, !tbaa !3
  br label %4

4:                                                ; preds = %1
  %5 = load ptr, ptr %3, align 8, !tbaa !3
  %6 = icmp ne ptr %5, null
  br i1 %6, label %11, label %7

7:                                                ; preds = %4
  br label %8

8:                                                ; preds = %7
  br label %9

9:                                                ; preds = %8
  br label %10

10:                                               ; preds = %9, %10
  br label %10

11:                                               ; preds = %4
  br label %12

12:                                               ; preds = %11
  %13 = load ptr, ptr %3, align 8, !tbaa !3
  %14 = getelementptr inbounds nuw %struct._lv_obj_t, ptr %13, i32 0, i32 2
  %15 = load ptr, ptr %14, align 8, !tbaa !43
  %16 = icmp eq ptr %15, null
  br i1 %16, label %17, label %18

17:                                               ; preds = %12
  store i32 0, ptr %2, align 4
  br label %25

18:                                               ; preds = %12
  %19 = load ptr, ptr %3, align 8, !tbaa !3
  %20 = getelementptr inbounds nuw %struct._lv_obj_t, ptr %19, i32 0, i32 2
  %21 = load ptr, ptr %20, align 8, !tbaa !43
  %22 = getelementptr inbounds nuw %struct._lv_obj_spec_attr_t, ptr %21, i32 0, i32 6
  %23 = load i16, ptr %22, align 8, !tbaa !64
  %24 = zext i16 %23 to i32
  store i32 %24, ptr %2, align 4
  br label %25

25:                                               ; preds = %18, %17
  %26 = load i32, ptr %2, align 4
  ret i32 %26
}

; Function Attrs: nounwind uwtable
define internal i32 @walk_core(ptr noundef %0, ptr noundef %1, ptr noundef %2) #0 {
  %4 = alloca i32, align 4
  %5 = alloca ptr, align 8
  %6 = alloca ptr, align 8
  %7 = alloca ptr, align 8
  %8 = alloca i32, align 4
  %9 = alloca ptr, align 8
  %10 = alloca i32, align 4
  %11 = alloca i32, align 4
  %12 = alloca i32, align 4
  store ptr %0, ptr %5, align 8, !tbaa !3
  store ptr %1, ptr %6, align 8, !tbaa !36
  store ptr %2, ptr %7, align 8, !tbaa !36
  call void @llvm.lifetime.start.p0(i64 4, ptr %8) #3
  store i32 0, ptr %8, align 4, !tbaa !37
  %13 = load ptr, ptr %5, align 8, !tbaa !3
  %14 = icmp eq ptr %13, null
  br i1 %14, label %15, label %45

15:                                               ; preds = %3
  call void @llvm.lifetime.start.p0(i64 8, ptr %9) #3
  %16 = call ptr @lv_display_get_next(ptr noundef null)
  store ptr %16, ptr %9, align 8, !tbaa !8
  br label %17

17:                                               ; preds = %41, %15
  %18 = load ptr, ptr %9, align 8, !tbaa !8
  %19 = icmp ne ptr %18, null
  br i1 %19, label %20, label %44

20:                                               ; preds = %17
  call void @llvm.lifetime.start.p0(i64 4, ptr %10) #3
  store i32 0, ptr %10, align 4, !tbaa !37
  br label %21

21:                                               ; preds = %38, %20
  %22 = load i32, ptr %10, align 4, !tbaa !37
  %23 = load ptr, ptr %9, align 8, !tbaa !8
  %24 = getelementptr inbounds nuw %struct._lv_display_t, ptr %23, i32 0, i32 35
  %25 = load i32, ptr %24, align 8, !tbaa !38
  %26 = icmp ult i32 %22, %25
  br i1 %26, label %27, label %41

27:                                               ; preds = %21
  %28 = load ptr, ptr %9, align 8, !tbaa !8
  %29 = getelementptr inbounds nuw %struct._lv_display_t, ptr %28, i32 0, i32 28
  %30 = load ptr, ptr %29, align 8, !tbaa !39
  %31 = load i32, ptr %10, align 4, !tbaa !37
  %32 = zext i32 %31 to i64
  %33 = getelementptr inbounds nuw ptr, ptr %30, i64 %32
  %34 = load ptr, ptr %33, align 8, !tbaa !3
  %35 = load ptr, ptr %6, align 8, !tbaa !36
  %36 = load ptr, ptr %7, align 8, !tbaa !36
  %37 = call i32 @walk_core(ptr noundef %34, ptr noundef %35, ptr noundef %36)
  br label %38

38:                                               ; preds = %27
  %39 = load i32, ptr %10, align 4, !tbaa !37
  %40 = add i32 %39, 1
  store i32 %40, ptr %10, align 4, !tbaa !37
  br label %21, !llvm.loop !88

41:                                               ; preds = %21
  %42 = load ptr, ptr %9, align 8, !tbaa !8
  %43 = call ptr @lv_display_get_next(ptr noundef %42)
  store ptr %43, ptr %9, align 8, !tbaa !8
  call void @llvm.lifetime.end.p0(i64 4, ptr %10) #3
  br label %17, !llvm.loop !89

44:                                               ; preds = %17
  store i32 2, ptr %4, align 4
  store i32 1, ptr %11, align 4
  call void @llvm.lifetime.end.p0(i64 8, ptr %9) #3
  br label %81

45:                                               ; preds = %3
  %46 = load ptr, ptr %6, align 8, !tbaa !36
  %47 = load ptr, ptr %5, align 8, !tbaa !3
  %48 = load ptr, ptr %7, align 8, !tbaa !36
  %49 = call i32 %46(ptr noundef %47, ptr noundef %48)
  store i32 %49, ptr %8, align 4, !tbaa !37
  %50 = load i32, ptr %8, align 4, !tbaa !37
  %51 = icmp eq i32 %50, 2
  br i1 %51, label %52, label %53

52:                                               ; preds = %45
  store i32 2, ptr %4, align 4
  store i32 1, ptr %11, align 4
  br label %81

53:                                               ; preds = %45
  %54 = load i32, ptr %8, align 4, !tbaa !37
  %55 = icmp ne i32 %54, 1
  br i1 %55, label %56, label %80

56:                                               ; preds = %53
  call void @llvm.lifetime.start.p0(i64 4, ptr %12) #3
  store i32 0, ptr %12, align 4, !tbaa !37
  br label %57

57:                                               ; preds = %73, %56
  %58 = load i32, ptr %12, align 4, !tbaa !37
  %59 = load ptr, ptr %5, align 8, !tbaa !3
  %60 = call i32 @lv_obj_get_child_count(ptr noundef %59)
  %61 = icmp ult i32 %58, %60
  br i1 %61, label %62, label %76

62:                                               ; preds = %57
  %63 = load ptr, ptr %5, align 8, !tbaa !3
  %64 = load i32, ptr %12, align 4, !tbaa !37
  %65 = call ptr @lv_obj_get_child(ptr noundef %63, i32 noundef %64)
  %66 = load ptr, ptr %6, align 8, !tbaa !36
  %67 = load ptr, ptr %7, align 8, !tbaa !36
  %68 = call i32 @walk_core(ptr noundef %65, ptr noundef %66, ptr noundef %67)
  store i32 %68, ptr %8, align 4, !tbaa !37
  %69 = load i32, ptr %8, align 4, !tbaa !37
  %70 = icmp eq i32 %69, 2
  br i1 %70, label %71, label %72

71:                                               ; preds = %62
  store i32 2, ptr %4, align 4
  store i32 1, ptr %11, align 4
  br label %77

72:                                               ; preds = %62
  br label %73

73:                                               ; preds = %72
  %74 = load i32, ptr %12, align 4, !tbaa !37
  %75 = add i32 %74, 1
  store i32 %75, ptr %12, align 4, !tbaa !37
  br label %57, !llvm.loop !90

76:                                               ; preds = %57
  store i32 0, ptr %11, align 4
  br label %77

77:                                               ; preds = %76, %71
  call void @llvm.lifetime.end.p0(i64 4, ptr %12) #3
  %78 = load i32, ptr %11, align 4
  switch i32 %78, label %81 [
    i32 0, label %79
  ]

79:                                               ; preds = %77
  br label %80

80:                                               ; preds = %79, %53
  store i32 0, ptr %4, align 4
  store i32 1, ptr %11, align 4
  br label %81

81:                                               ; preds = %80, %77, %52, %44
  call void @llvm.lifetime.end.p0(i64 4, ptr %8) #3
  %82 = load i32, ptr %4, align 4
  ret i32 %82
}