; Function Attrs: nounwind uwtable
define internal fastcc range(i32 0, 3) i32 @walk_core(ptr noundef %0, ptr noundef %1, ptr noundef %2) unnamed_addr #0 {
  %4 = icmp eq ptr %0, null
  br i1 %4, label %5, label %19

5:                                                ; preds = %3
  %6 = tail call ptr @lv_display_get_next(ptr noundef null) #6
  %.not3141 = icmp eq ptr %6, null
  br i1 %.not3141, label %.loopexit, label %.preheader

.preheader:                                       ; preds = %5, %._crit_edge
  %.02642 = phi ptr [ %18, %._crit_edge ], [ %6, %5 ]
  %7 = getelementptr inbounds nuw i8, ptr %.02642, i64 832
  %8 = load i32, ptr %7, align 8, !tbaa !15
  %.not = icmp eq i32 %8, 0
  br i1 %.not, label %._crit_edge, label %.lr.ph

.lr.ph:                                           ; preds = %.preheader
  %9 = getelementptr inbounds nuw i8, ptr %.02642, i64 776
  br label %10

10:                                               ; preds = %.lr.ph, %10
  %indvars.iv45 = phi i64 [ 0, %.lr.ph ], [ %indvars.iv.next46, %10 ]
  %11 = load ptr, ptr %9, align 8, !tbaa !30
  %12 = getelementptr inbounds nuw ptr, ptr %11, i64 %indvars.iv45
  %13 = load ptr, ptr %12, align 8, !tbaa !33
  %14 = tail call fastcc i32 @walk_core(ptr noundef %13, ptr noundef %1, ptr noundef %2)
  %indvars.iv.next46 = add nuw nsw i64 %indvars.iv45, 1
  %15 = load i32, ptr %7, align 8, !tbaa !15
  %16 = zext i32 %15 to i64
  %17 = icmp samesign ult i64 %indvars.iv.next46, %16
  br i1 %17, label %10, label %._crit_edge, !llvm.loop !73

._crit_edge:                                      ; preds = %10, %.preheader
  %18 = tail call ptr @lv_display_get_next(ptr noundef nonnull %.02642) #6
  %.not31 = icmp eq ptr %18, null
  br i1 %.not31, label %.loopexit, label %.preheader, !llvm.loop !74

19:                                               ; preds = %3
  %20 = tail call i32 %1(ptr noundef nonnull %0, ptr noundef %2) #6
  switch i32 %20, label %.preheader37 [
    i32 2, label %.loopexit
    i32 1, label %.critedge
  ]

.preheader37:                                     ; preds = %19
  %21 = getelementptr inbounds nuw i8, ptr %0, i64 16
  %22 = load ptr, ptr %21, align 8, !tbaa !37
  %23 = icmp eq ptr %22, null
  br i1 %23, label %.critedge, label %lv_obj_get_child_count.exit.thread

24:                                               ; preds = %lv_obj_get_child.exit
  %indvars.iv.next = add nuw nsw i64 %indvars.iv, 1
  %25 = load ptr, ptr %21, align 8, !tbaa !37
  %26 = icmp eq ptr %25, null
  br i1 %26, label %.critedge, label %lv_obj_get_child_count.exit.thread, !llvm.loop !75

lv_obj_get_child_count.exit.thread:               ; preds = %.preheader37, %24
  %indvars.iv = phi i64 [ %indvars.iv.next, %24 ], [ 0, %.preheader37 ]
  %27 = phi ptr [ %25, %24 ], [ %22, %.preheader37 ]
  %28 = getelementptr inbounds nuw i8, ptr %27, i64 64
  %29 = load i16, ptr %28, align 8, !tbaa !38
  %30 = zext i16 %29 to i64
  %.not3036 = icmp samesign ult i64 %indvars.iv, %30
  br i1 %.not3036, label %lv_obj_get_child.exit, label %.critedge

lv_obj_get_child.exit:                            ; preds = %lv_obj_get_child_count.exit.thread
  %31 = load ptr, ptr %27, align 8, !tbaa !42
  %32 = getelementptr inbounds nuw ptr, ptr %31, i64 %indvars.iv
  %33 = load ptr, ptr %32, align 8, !tbaa !33
  %34 = tail call fastcc i32 @walk_core(ptr noundef %33, ptr noundef %1, ptr noundef %2)
  %35 = icmp eq i32 %34, 2
  br i1 %35, label %.loopexit, label %24

.critedge:                                        ; preds = %lv_obj_get_child_count.exit.thread, %24, %.preheader37, %19
  br label %.loopexit

.loopexit:                                        ; preds = %lv_obj_get_child.exit, %._crit_edge, %5, %19, %.critedge
  %.027 = phi i32 [ 0, %.critedge ], [ %20, %19 ], [ 2, %5 ], [ 2, %._crit_edge ], [ 2, %lv_obj_get_child.exit ]
  ret i32 %.027
}